; Function Attrs: nofree norecurse nosync nounwind memory(readwrite, inaccessiblemem: none) uwtable
define hidden void @IntArgbToThreeByteBgrConvert(ptr noundef %0, ptr noundef %1, i32 noundef %2, i32 noundef %3, ptr nocapture noundef readonly %4, ptr nocapture noundef readonly %5, ptr nocapture readnone %6, ptr nocapture readnone %7) #1 {
  %9 = getelementptr inbounds i8, ptr %4, i64 32
  %10 = load i32, ptr %9, align 8
  %11 = getelementptr inbounds i8, ptr %5, i64 32
  %12 = load i32, ptr %11, align 8
  %13 = shl i32 %2, 2
  %14 = sub i32 %10, %13
  %.neg = mul i32 %2, -3
  %15 = add i32 %12, %.neg
  %16 = sext i32 %14 to i64
  %17 = sext i32 %15 to i64
  br label %18

18:                                               ; preds = %35, %8
  %.025 = phi ptr [ %0, %8 ], [ %37, %35 ]
  %.024 = phi ptr [ %1, %8 ], [ %39, %35 ]
  %.0 = phi i32 [ %3, %8 ], [ %40, %35 ]
  br label %19

19:                                               ; preds = %19, %18
  %.126 = phi ptr [ %.025, %18 ], [ %30, %19 ]
  %.1 = phi ptr [ %.024, %18 ], [ %33, %19 ]
  %.023 = phi i32 [ %2, %18 ], [ %34, %19 ]
  %20 = load i32, ptr %.126, align 4
  %21 = trunc i32 %20 to i8
  store i8 %21, ptr %.1, align 1
  %22 = lshr i32 %20, 8
  %23 = trunc i32 %22 to i8
  %24 = getelementptr inbounds i8, ptr %.1, i64 1
  store i8 %23, ptr %24, align 1
  %25 = lshr i32 %20, 16
  %26 = trunc i32 %25 to i8
  %27 = getelementptr inbounds i8, ptr %.1, i64 2
  store i8 %26, ptr %27, align 1
  %28 = ptrtoint ptr %.126 to i64
  %29 = add nsw i64 %28, 4
  %30 = inttoptr i64 %29 to ptr
  %31 = ptrtoint ptr %.1 to i64
  %32 = add nsw i64 %31, 3
  %33 = inttoptr i64 %32 to ptr
  %34 = add i32 %.023, -1
  %.not = icmp eq i32 %34, 0
  br i1 %.not, label %35, label %19, !llvm.loop !9

35:                                               ; preds = %19
  %36 = add nsw i64 %29, %16
  %37 = inttoptr i64 %36 to ptr
  %38 = add nsw i64 %32, %17
  %39 = inttoptr i64 %38 to ptr
  %40 = add i32 %.0, -1
  %.not28 = icmp eq i32 %40, 0
  br i1 %.not28, label %41, label %18, !llvm.loop !10

41:                                               ; preds = %35
  ret void
}